; Function Attrs: mustprogress uwtable
define void @_ZN7rocksdb31GetFileChecksumGenCrc32cFactoryEv(ptr dead_on_unwind noalias writable writeonly sret(%"class.std::shared_ptr") align 8 captures(none) %0) local_unnamed_addr #2 personality ptr @__gxx_personality_v0 {
  %2 = load atomic i8, ptr @_ZGVZN7rocksdb31GetFileChecksumGenCrc32cFactoryEvE26default_crc32c_gen_factory acquire, align 8
  %3 = icmp eq i8 %2, 0
  br i1 %3, label %4, label %11, !prof !87

4:                                                ; preds = %1
  %5 = tail call i32 @__cxa_guard_acquire(ptr nonnull @_ZGVZN7rocksdb31GetFileChecksumGenCrc32cFactoryEvE26default_crc32c_gen_factory) #25
  %.not = icmp eq i32 %5, 0
  br i1 %.not, label %11, label %6

6:                                                ; preds = %4
  %7 = invoke noalias noundef nonnull dereferenceable(32) ptr @_Znwm(i64 noundef 32) #27
          to label %8 unwind label %23

8:                                                ; preds = %6
  tail call void @llvm.memset.p0.i64(ptr noundef nonnull align 16 dereferenceable(32) %7, i8 0, i64 32, i1 false)
  store ptr getelementptr inbounds nuw inrange(-16, 160) (i8, ptr @_ZTVN7rocksdb28FileChecksumGenCrc32cFactoryE, i64 16), ptr %7, align 8, !tbaa !84
  invoke void @_ZNSt10shared_ptrIN7rocksdb22FileChecksumGenFactoryEEC2INS0_28FileChecksumGenCrc32cFactoryEvEEPT_(ptr noundef nonnull align 8 dereferenceable(16) @_ZZN7rocksdb31GetFileChecksumGenCrc32cFactoryEvE26default_crc32c_gen_factory, ptr noundef nonnull %7)
          to label %9 unwind label %23

9:                                                ; preds = %8
  %10 = tail call i32 @__cxa_atexit(ptr nonnull @_ZNSt12__shared_ptrIN7rocksdb22FileChecksumGenFactoryELN9__gnu_cxx12_Lock_policyE2EED2Ev, ptr nonnull @_ZZN7rocksdb31GetFileChecksumGenCrc32cFactoryEvE26default_crc32c_gen_factory, ptr nonnull @__dso_handle) #25
  tail call void @__cxa_guard_release(ptr nonnull @_ZGVZN7rocksdb31GetFileChecksumGenCrc32cFactoryEvE26default_crc32c_gen_factory) #25
  br label %11

11:                                               ; preds = %9, %4, %1
  %12 = load ptr, ptr @_ZZN7rocksdb31GetFileChecksumGenCrc32cFactoryEvE26default_crc32c_gen_factory, align 8, !tbaa !88
  store ptr %12, ptr %0, align 8, !tbaa !88
  %13 = getelementptr inbounds nuw i8, ptr %0, i64 8
  %14 = load ptr, ptr getelementptr inbounds nuw (i8, ptr @_ZZN7rocksdb31GetFileChecksumGenCrc32cFactoryEvE26default_crc32c_gen_factory, i64 8), align 8, !tbaa !93
  store ptr %14, ptr %13, align 8, !tbaa !93
  %.not.i.i.i = icmp eq ptr %14, null
  br i1 %.not.i.i.i, label %_ZNSt10shared_ptrIN7rocksdb22FileChecksumGenFactoryEEC2ERKS2_.exit, label %15

15:                                               ; preds = %11
  %16 = getelementptr inbounds nuw i8, ptr %14, i64 8
  %17 = load i8, ptr @__libc_single_threaded, align 1, !tbaa !22
  %.not.i.i.i.i = icmp eq i8 %17, 0
  br i1 %.not.i.i.i.i, label %21, label %18

18:                                               ; preds = %15
  %19 = load i32, ptr %16, align 4, !tbaa !94
  %20 = add nsw i32 %19, 1
  store i32 %20, ptr %16, align 4, !tbaa !94
  br label %_ZNSt10shared_ptrIN7rocksdb22FileChecksumGenFactoryEEC2ERKS2_.exit

21:                                               ; preds = %15
  %22 = atomicrmw volatile add ptr %16, i32 1 acq_rel, align 4
  br label %_ZNSt10shared_ptrIN7rocksdb22FileChecksumGenFactoryEEC2ERKS2_.exit

_ZNSt10shared_ptrIN7rocksdb22FileChecksumGenFactoryEEC2ERKS2_.exit: ; preds = %11, %18, %21
  ret void

23:                                               ; preds = %8, %6
  %24 = landingpad { ptr, i32 }
          cleanup
  tail call void @__cxa_guard_abort(ptr nonnull @_ZGVZN7rocksdb31GetFileChecksumGenCrc32cFactoryEvE26default_crc32c_gen_factory) #25
  resume { ptr, i32 } %24
}